target datalayout = "e-m:e-p270:32:32-p271:32:32-p272:64:64-i64:64-i128:128-f80:128-n8:16:32:64-S128"
target triple = "x86_64-pc-linux-gnu"

%struct._GString = type { ptr, i64, i64 }

@.str = private unnamed_addr constant [6 x i8] c"hosts\00", align 1
@dump_v4 = internal global i8 0, align 1
@dump_v6 = internal global i8 0, align 1
@.str.2 = private unnamed_addr constant [2 x i8] c",\00", align 1
@.str.3 = private unnamed_addr constant [5 x i8] c"ipv4\00", align 1
@.str.4 = private unnamed_addr constant [3 x i8] c"ip\00", align 1
@.str.5 = private unnamed_addr constant [5 x i8] c"ipv6\00", align 1
@.str.6 = private unnamed_addr constant [43 x i8] c"invalid \22-z hosts[,ip|ipv4|ipv6]\22 argument\00", align 1
@.str.7 = private unnamed_addr constant [6 x i8] c"frame\00", align 1
@.str.8 = private unnamed_addr constant [32 x i8] c"Couldn't register hosts tap: %s\00", align 1

; Function Attrs: null_pointer_is_valid sspstrong uwtable
define internal void @hosts_init(ptr noundef %0, ptr noundef %1) #0 {
  %3 = alloca ptr, align 8
  %4 = alloca ptr, align 8
  %5 = alloca ptr, align 8
  %6 = alloca ptr, align 8
  %7 = alloca i32, align 4
  store ptr %0, ptr %3, align 8
  store ptr %1, ptr %4, align 8
  call void @llvm.lifetime.start.p0(i64 8, ptr %5) #5
  call void @llvm.lifetime.start.p0(i64 8, ptr %6) #5
  call void @llvm.lifetime.start.p0(i64 4, ptr %7) #5
  store i8 0, ptr @dump_v4, align 1
  store i8 0, ptr @dump_v6, align 1
  %8 = load ptr, ptr %3, align 8
  %9 = call i32 @strcmp(ptr noundef @.str, ptr noundef %8) #6
  %10 = icmp eq i32 %9, 0
  br i1 %10, label %11, label %12

11:                                               ; preds = %2
  store i8 1, ptr @dump_v4, align 1
  store i8 1, ptr @dump_v6, align 1
  br label %59

12:                                               ; preds = %2
  %13 = load ptr, ptr %3, align 8
  %14 = call ptr @g_strsplit(ptr noundef %13, ptr noundef @.str.2, i32 noundef 0)
  store ptr %14, ptr %6, align 8
  store i32 0, ptr %7, align 4
  br label %15

15:                                               ; preds = %54, %12
  %16 = load ptr, ptr %6, align 8
  %17 = load i32, ptr %7, align 4
  %18 = sext i32 %17 to i64
  %19 = getelementptr ptr, ptr %16, i64 %18
  %20 = load ptr, ptr %19, align 8
  %21 = icmp ne ptr %20, null
  br i1 %21, label %22, label %57

22:                                               ; preds = %15
  %23 = load ptr, ptr %6, align 8
  %24 = load i32, ptr %7, align 4
  %25 = sext i32 %24 to i64
  %26 = getelementptr ptr, ptr %23, i64 %25
  %27 = load ptr, ptr %26, align 8
  %28 = call i32 @strcmp(ptr noundef @.str.3, ptr noundef %27) #6
  %29 = icmp eq i32 %28, 0
  br i1 %29, label %38, label %30

30:                                               ; preds = %22
  %31 = load ptr, ptr %6, align 8
  %32 = load i32, ptr %7, align 4
  %33 = sext i32 %32 to i64
  %34 = getelementptr ptr, ptr %31, i64 %33
  %35 = load ptr, ptr %34, align 8
  %36 = call i32 @strcmp(ptr noundef @.str.4, ptr noundef %35) #6
  %37 = icmp eq i32 %36, 0
  br i1 %37, label %38, label %39

38:                                               ; preds = %30, %22
  store i8 1, ptr @dump_v4, align 1
  br label %54

39:                                               ; preds = %30
  %40 = load ptr, ptr %6, align 8
  %41 = load i32, ptr %7, align 4
  %42 = sext i32 %41 to i64
  %43 = getelementptr ptr, ptr %40, i64 %42
  %44 = load ptr, ptr %43, align 8
  %45 = call i32 @strcmp(ptr noundef @.str.5, ptr noundef %44) #6
  %46 = icmp eq i32 %45, 0
  br i1 %46, label %47, label %48

47:                                               ; preds = %39
  store i8 1, ptr @dump_v6, align 1
  br label %53

48:                                               ; preds = %39
  %49 = load i32, ptr %7, align 4
  %50 = icmp sgt i32 %49, 0
  br i1 %50, label %51, label %52

51:                                               ; preds = %48
  call void (ptr, ...) @cmdarg_err(ptr noundef @.str.6)
  call void @exit(i32 noundef 1) #7
  unreachable

52:                                               ; preds = %48
  br label %53

53:                                               ; preds = %52, %47
  br label %54

54:                                               ; preds = %53, %38
  %55 = load i32, ptr %7, align 4
  %56 = add i32 %55, 1
  store i32 %56, ptr %7, align 4
  br label %15, !llvm.loop !7

57:                                               ; preds = %15
  %58 = load ptr, ptr %6, align 8
  call void @g_strfreev(ptr noundef %58)
  br label %59

59:                                               ; preds = %57, %11
  %60 = call ptr @register_tap_listener(ptr noundef @.str.7, ptr noundef null, ptr noundef null, i32 noundef 1, ptr noundef null, ptr noundef null, ptr noundef @hosts_draw, ptr noundef null)
  store ptr %60, ptr %5, align 8
  %61 = load ptr, ptr %5, align 8
  %62 = icmp ne ptr %61, null
  br i1 %62, label %63, label %69

63:                                               ; preds = %59
  %64 = load ptr, ptr %5, align 8
  %65 = getelementptr inbounds nuw %struct._GString, ptr %64, i32 0, i32 0
  %66 = load ptr, ptr %65, align 8
  call void (ptr, ...) @cmdarg_err(ptr noundef @.str.8, ptr noundef %66)
  %67 = load ptr, ptr %5, align 8
  %68 = call ptr @g_string_free(ptr noundef %67, i32 noundef 1)
  call void @exit(i32 noundef 1) #7
  unreachable

69:                                               ; preds = %59
  call void @llvm.lifetime.end.p0(i64 4, ptr %7) #5
  call void @llvm.lifetime.end.p0(i64 8, ptr %6) #5
  call void @llvm.lifetime.end.p0(i64 8, ptr %5) #5
  ret void
}