; Function Attrs: null_pointer_is_valid sspstrong uwtable
define internal void @hosts_init(ptr noundef %0, ptr readnone captures(none) %1) #0 {
  store i1 false, ptr @dump_v4, align 1
  store i1 false, ptr @dump_v6, align 1
  %3 = tail call i32 @strcmp(ptr noundef nonnull dereferenceable(6) @.str, ptr noundef %0) #4
  %4 = icmp eq i32 %3, 0
  br i1 %4, label %5, label %6

5:                                                ; preds = %2
  store i1 true, ptr @dump_v4, align 1
  store i1 true, ptr @dump_v6, align 1
  br label %36

6:                                                ; preds = %2
  %7 = tail call ptr @g_strsplit(ptr noundef %0, ptr noundef nonnull @.str.2, i32 noundef 0)
  %8 = load ptr, ptr %7, align 8
  %.not18 = icmp eq ptr %8, null
  br i1 %.not18, label %._crit_edge, label %.lr.ph

.lr.ph:                                           ; preds = %6, %31
  %9 = phi ptr [ %35, %31 ], [ %8, %6 ]
  %.019 = phi i32 [ %32, %31 ], [ 0, %6 ]
  %10 = tail call i32 @strcmp(ptr noundef nonnull dereferenceable(5) @.str.3, ptr noundef nonnull dereferenceable(1) %9) #4
  %11 = icmp eq i32 %10, 0
  br i1 %11, label %.sink.split, label %sub_0

sub_0:                                            ; preds = %.lr.ph
  %12 = load i8, ptr %9, align 1
  %13 = zext i8 %12 to i32
  %14 = sub nsw i32 105, %13
  %.not21 = icmp eq i8 %12, 105
  br i1 %.not21, label %sub_1, label %.tail

sub_1:                                            ; preds = %sub_0
  %15 = getelementptr inbounds nuw i8, ptr %9, i64 1
  %16 = load i8, ptr %15, align 1
  %17 = zext i8 %16 to i32
  %18 = sub nsw i32 112, %17
  %.not22 = icmp eq i8 %16, 112
  br i1 %.not22, label %sub_2, label %.tail

sub_2:                                            ; preds = %sub_1
  %19 = getelementptr inbounds nuw i8, ptr %9, i64 2
  %20 = load i8, ptr %19, align 1
  %21 = zext i8 %20 to i32
  %22 = sub nsw i32 0, %21
  br label %.tail

.tail:                                            ; preds = %sub_0, %sub_1, %sub_2
  %23 = phi i32 [ %14, %sub_0 ], [ %18, %sub_1 ], [ %22, %sub_2 ]
  %24 = icmp eq i32 %23, 0
  br i1 %24, label %.sink.split, label %25

25:                                               ; preds = %.tail
  %26 = tail call i32 @strcmp(ptr noundef nonnull dereferenceable(5) @.str.5, ptr noundef nonnull dereferenceable(1) %9) #4
  %27 = icmp eq i32 %26, 0
  br i1 %27, label %.sink.split, label %28

28:                                               ; preds = %25
  %29 = icmp sgt i32 %.019, 0
  br i1 %29, label %30, label %31

30:                                               ; preds = %28
  tail call void (ptr, ...) @cmdarg_err(ptr noundef nonnull @.str.6)
  tail call void @exit(i32 noundef 1) #5
  unreachable

.sink.split:                                      ; preds = %25, %.lr.ph, %.tail
  %dump_v6.sink = phi ptr [ @dump_v4, %.tail ], [ @dump_v4, %.lr.ph ], [ @dump_v6, %25 ]
  store i1 true, ptr %dump_v6.sink, align 1
  br label %31

31:                                               ; preds = %.sink.split, %28
  %32 = add i32 %.019, 1
  %33 = sext i32 %32 to i64
  %34 = getelementptr ptr, ptr %7, i64 %33
  %35 = load ptr, ptr %34, align 8
  %.not = icmp eq ptr %35, null
  br i1 %.not, label %._crit_edge, label %.lr.ph, !llvm.loop !7

._crit_edge:                                      ; preds = %31, %6
  tail call void @g_strfreev(ptr noundef %7)
  br label %36

36:                                               ; preds = %._crit_edge, %5
  %37 = tail call ptr @register_tap_listener(ptr noundef nonnull @.str.7, ptr noundef null, ptr noundef null, i32 noundef 1, ptr noundef null, ptr noundef null, ptr noundef nonnull @hosts_draw, ptr noundef null)
  %.not17 = icmp eq ptr %37, null
  br i1 %.not17, label %41, label %38

38:                                               ; preds = %36
  %39 = load ptr, ptr %37, align 8
  tail call void (ptr, ...) @cmdarg_err(ptr noundef nonnull @.str.8, ptr noundef %39)
  %40 = tail call ptr @g_string_free(ptr noundef nonnull %37, i32 noundef 1)
  tail call void @exit(i32 noundef 1) #5
  unreachable

41:                                               ; preds = %36
  ret void
}